###############################################################################
#
# IAR ELF Linker V3.10.1.201 for STM8                     26/May/2019  00:48:25
# Copyright 2010-2017 IAR Systems AB.
#
#    Output file  =  D:\STM8Workspace\FT-TRSY\FT_TRMT_FW\Debug\Exe\FT_TRMT.out
#    Map file     =  D:\STM8Workspace\FT-TRSY\FT_TRMT_FW\Debug\List\FT_TRMT.map
#    Command line =  
#        -f C:\Users\LNCZGE~1\AppData\Local\Temp\EW58A1.tmp
#        (D:\STM8Workspace\FT-TRSY\FT_TRMT_FW\Debug\Obj\bsp.o
#        D:\STM8Workspace\FT-TRSY\FT_TRMT_FW\Debug\Obj\eeprom.o
#        D:\STM8Workspace\FT-TRSY\FT_TRMT_FW\Debug\Obj\HD44780.o
#        D:\STM8Workspace\FT-TRSY\FT_TRMT_FW\Debug\Obj\main.o
#        D:\STM8Workspace\FT-TRSY\FT_TRMT_FW\Debug\Obj\RFM22B.o
#        D:\STM8Workspace\FT-TRSY\FT_TRMT_FW\Debug\Obj\stm8l15x_adc.o
#        D:\STM8Workspace\FT-TRSY\FT_TRMT_FW\Debug\Obj\stm8l15x_aes.o
#        D:\STM8Workspace\FT-TRSY\FT_TRMT_FW\Debug\Obj\stm8l15x_beep.o
#        D:\STM8Workspace\FT-TRSY\FT_TRMT_FW\Debug\Obj\stm8l15x_clk.o
#        D:\STM8Workspace\FT-TRSY\FT_TRMT_FW\Debug\Obj\stm8l15x_comp.o
#        D:\STM8Workspace\FT-TRSY\FT_TRMT_FW\Debug\Obj\stm8l15x_dac.o
#        D:\STM8Workspace\FT-TRSY\FT_TRMT_FW\Debug\Obj\stm8l15x_dma.o
#        D:\STM8Workspace\FT-TRSY\FT_TRMT_FW\Debug\Obj\stm8l15x_exti.o
#        D:\STM8Workspace\FT-TRSY\FT_TRMT_FW\Debug\Obj\stm8l15x_flash.o
#        D:\STM8Workspace\FT-TRSY\FT_TRMT_FW\Debug\Obj\stm8l15x_gpio.o
#        D:\STM8Workspace\FT-TRSY\FT_TRMT_FW\Debug\Obj\stm8l15x_i2c.o
#        D:\STM8Workspace\FT-TRSY\FT_TRMT_FW\Debug\Obj\stm8l15x_irtim.o
#        D:\STM8Workspace\FT-TRSY\FT_TRMT_FW\Debug\Obj\stm8l15x_it.o
#        D:\STM8Workspace\FT-TRSY\FT_TRMT_FW\Debug\Obj\stm8l15x_itc.o
#        D:\STM8Workspace\FT-TRSY\FT_TRMT_FW\Debug\Obj\stm8l15x_iwdg.o
#        D:\STM8Workspace\FT-TRSY\FT_TRMT_FW\Debug\Obj\stm8l15x_lcd.o
#        D:\STM8Workspace\FT-TRSY\FT_TRMT_FW\Debug\Obj\stm8l15x_pwr.o
#        D:\STM8Workspace\FT-TRSY\FT_TRMT_FW\Debug\Obj\stm8l15x_rst.o
#        D:\STM8Workspace\FT-TRSY\FT_TRMT_FW\Debug\Obj\stm8l15x_rtc.o
#        D:\STM8Workspace\FT-TRSY\FT_TRMT_FW\Debug\Obj\stm8l15x_spi.o
#        D:\STM8Workspace\FT-TRSY\FT_TRMT_FW\Debug\Obj\stm8l15x_syscfg.o
#        D:\STM8Workspace\FT-TRSY\FT_TRMT_FW\Debug\Obj\stm8l15x_tim1.o
#        D:\STM8Workspace\FT-TRSY\FT_TRMT_FW\Debug\Obj\stm8l15x_tim2.o
#        D:\STM8Workspace\FT-TRSY\FT_TRMT_FW\Debug\Obj\stm8l15x_tim3.o
#        D:\STM8Workspace\FT-TRSY\FT_TRMT_FW\Debug\Obj\stm8l15x_tim4.o
#        D:\STM8Workspace\FT-TRSY\FT_TRMT_FW\Debug\Obj\stm8l15x_tim5.o
#        D:\STM8Workspace\FT-TRSY\FT_TRMT_FW\Debug\Obj\stm8l15x_usart.o
#        D:\STM8Workspace\FT-TRSY\FT_TRMT_FW\Debug\Obj\stm8l15x_wfe.o
#        D:\STM8Workspace\FT-TRSY\FT_TRMT_FW\Debug\Obj\stm8l15x_wwdg.o
#        D:\STM8Workspace\FT-TRSY\FT_TRMT_FW\Debug\Obj\timing_delay.o
#        --redirect _Printf=_PrintfFullNoMb --redirect _Scanf=_ScanfFullNoMb -o
#        D:\STM8Workspace\FT-TRSY\FT_TRMT_FW\Debug\Exe\FT_TRMT.out --map
#        D:\STM8Workspace\FT-TRSY\FT_TRMT_FW\Debug\List\FT_TRMT.map --config
#        "C:\Program Files (x86)\IAR Systems\Embedded Workbench
#        8.0\stm8\config\lnkstm8al3l66.icf" --config_def _CSTACK_SIZE=0x100
#        --config_def _HEAP_SIZE=0x100 --entry __iar_program_start --debug_lib)
#
###############################################################################

*******************************************************************************
*** RUNTIME MODEL ATTRIBUTES
***

__SystemLibrary            = DLib
__code_model               = small
__core                     = stm8
__data_model               = medium
__dlib_file_descriptor     = 0
__dlib_full_locale_support = 0
__rt_version               = 4


*******************************************************************************
*** PLACEMENT SUMMARY
***

"A0":  place at start of [0x000000-0x0000ff] { rw section .vregs };
"A1":  place at end of [0x000000-0x0007ff] { block CSTACK };
"P2":  place in [from 0x000000 to 0x0007ff] {
          block HEAP, rw section __DLIB_PERTHREAD, rw section .far.bss,
          rw section .far.data, rw section .far.noinit,
          rw section .far_func.textrw, rw section .huge.bss,
          rw section .huge.data, rw section .huge.noinit,
          rw section .huge_func.textrw, rw section .iar.dynexit,
          rw section .near.bss, rw section .near.data, rw section .near.noinit,
          rw section .near_func.textrw };
"A2":  place at start of [0x008000-0x00ffff] { block INTVEC };
"P3":  place in [from 0x008000 to 0x00ffff] {
          ro section __DLIB_PERTHREAD_init, ro section .far.data_init,
          ro section .far_func.textrw_init, ro section .huge.data_init,
          ro section .huge_func.textrw_init, ro section .iar.init_table,
          ro section .init_array, ro section .near.data_init,
          ro section .near.rodata, ro section .near_func.text,
          ro section .near_func.textrw_init, ro section .tiny.data_init,
          ro section .tiny.rodata_init };
"P4":  place in [from 0x008000 to 0x00ffff] {
          ro section .far.rodata, ro section .far_func.text };
"P5":  place in [from 0x008000 to 0x00ffff] {
          ro section .huge.rodata, ro section .huge_func.text };
do not initialize {
   rw section .eeprom.noinit, rw section .far.noinit, rw section .huge.noinit,
   rw section .near.noinit, rw section .tiny.noinit, rw section .vregs };

  Section          Kind      Address    Size  Object
  -------          ----      -------    ----  ------
"A0":                                   0x10
  .vregs           uninit   0x000000    0x10  vregs.o [4]
                          - 0x000010    0x10

"P2":                                   0x5e
  .near.bss        zero     0x000010    0x32  RFM22B.o [1]
  .near.bss        zero     0x000042    0x14  main.o [1]
  .near.bss        zero     0x000056     0x4  timing_delay.o [1]
  .near.bss        zero     0x00005a     0x4  timing_delay.o [1]
  .near.bss        zero     0x00005e     0x2  RFM22B.o [1]
  .near.bss        zero     0x000060     0x2  RFM22B.o [1]
  .near.bss        zero     0x000062     0x2  RFM22B.o [1]
  .near.bss        zero     0x000064     0x2  RFM22B.o [1]
  .near.bss        zero     0x000066     0x1  RFM22B.o [1]
  .near.bss        zero     0x000067     0x1  RFM22B.o [1]
  .near.bss        zero     0x000068     0x1  RFM22B.o [1]
  .near.bss        zero     0x000069     0x1  RFM22B.o [1]
  .near.bss        zero     0x00006a     0x1  RFM22B.o [1]
  .near.bss        zero     0x00006b     0x1  RFM22B.o [1]
  .near.bss        zero     0x00006c     0x1  RFM22B.o [1]
  .near.bss        zero     0x00006d     0x1  RFM22B.o [1]
                          - 0x00006e    0x5e

"A1":                                  0x100
  CSTACK                    0x000700   0x100  <Block>
    CSTACK         uninit   0x000700   0x100  <Block tail>
                          - 0x000800   0x100

"A2":                                   0x80
  INTVEC                    0x008000    0x80  <Block>
    .intvec        const    0x008000    0x80  interrupt.o [4]
                          - 0x008080    0x80

"P3-P5":                              0x34a0
  .near_func.text  ro code  0x008080   0x758  RFM22B.o [1]
  .near_func.text  ro code  0x0087d8   0x4c9  float.o [4]
  .near_func.text  ro code  0x008ca1   0x45d  xprintffull_nomb.o [4]
  .near_func.text  ro code  0x0090fe   0x412  xprintffull_nomb.o [4]
  .near_func.text  ro code  0x009510   0x383  xprintffull_nomb.o [4]
  .near_func.text  ro code  0x009893   0x20e  long.o [4]
  .near_func.text  ro code  0x009aa1   0x1fb  HD44780.o [1]
  .near.rodata     const    0x009c9c   0x1c2  RFM22B.o [1]
  .near_func.text  ro code  0x009e5e   0x176  xprintffull_nomb.o [4]
  .near_func.text  ro code  0x009fd4   0x161  float_libsup.o [4]
  .near_func.text  ro code  0x00a135   0x153  vreg_util.o [4]
  .near_func.text  ro code  0x00a288   0x113  stm8l15x_itc.o [1]
  .near_func.text  ro code  0x00a39b   0x10d  stm8l15x_exti.o [1]
  .near_func.text  ro code  0x00a4a8   0x104  main.o [1]
  .near_func.text  ro code  0x00a5ac    0xcb  xdint.o [4]
  .near_func.text  ro code  0x00a677    0x98  stm8l15x_clk.o [1]
  .near_func.text  ro code  0x00a70f    0x90  bsp.o [1]
  .near_func.text  ro code  0x00a79f    0x8e  stm8l15x_gpio.o [1]
  .near_func.text  ro code  0x00a82d    0x89  stm8l15x_clk.o [1]
  .near_func.text  ro code  0x00a8b6    0x87  bsp.o [1]
  .near_func.text  ro code  0x00a93d    0x87  bsp.o [1]
  .near_func.text  ro code  0x00a9c4    0x72  long_util.o [4]
  .near_func.text  ro code  0x00aa36    0x61  stm8l15x_tim1.o [1]
  .near_func.text  ro code  0x00aa97    0x5f  bsp.o [1]
  .near_func.text  ro code  0x00aaf6    0x55  stm8l15x_adc.o [1]
  .near_func.text  ro code  0x00ab4b    0x47  short.o [4]
  .near_func.text  ro code  0x00ab92    0x46  bsp.o [1]
  .near_func.text  ro code  0x00abd8    0x43  xprintffull_nomb.o [4]
  .near_func.text  ro code  0x00ac1b    0x41  stm8l15x_spi.o [1]
  .near_func.text  ro code  0x00ac5c    0x41  xprintffull_nomb.o [4]
  .near_func.text  ro code  0x00ac9d    0x3d  sprintf.o [4]
  .near_func.text  ro code  0x00acda    0x3c  bsp.o [1]
  .near_func.text  const    0x00ad16    0x3c  xprintffull_nomb.o [4]
  .near_func.text  ro code  0x00ad52    0x3a  floor.o [4]
  .near_func.text  ro code  0x00ad8c    0x38  bsp.o [1]
  .near_func.text  ro code  0x00adc4    0x37  xprintffull_nomb.o [4]
  .near_func.text  ro code  0x00adfb    0x33  stm8l15x_it.o [1]
  .near_func.text  ro code  0x00ae2e    0x33  stm8l15x_it.o [1]
  .near_func.text  ro code  0x00ae61    0x33  xprintffull_nomb.o [4]
  .near.rodata     const    0x00ae94    0x32  main.o [1]
  .near_func.text  ro code  0x00aec6    0x31  stm8l15x_adc.o [1]
  .near_func.text  ro code  0x00aef7    0x30  div.o [4]
  .near_func.text  ro code  0x00af27    0x2f  xprintffull_nomb.o [4]
  .near_func.text  ro code  0x00af56    0x2d  bsp.o [1]
  .near_func.text  ro code  0x00af83    0x2c  stm8l15x_gpio.o [1]
  .near_func.text  ro code  0x00afaf    0x2c  dc_util.o [4]
  .near_func.text  ro code  0x00afdb    0x2b  stm8l15x_adc.o [1]
  .near_func.text  ro code  0x00b006    0x29  stm8l15x_it.o [1]
  .near_func.text  ro code  0x00b02f    0x25  timing_delay.o [1]
  .near_func.text  ro code  0x00b054    0x24  bsp.o [1]
  .near_func.text  ro code  0x00b078    0x24  stm8l15x_adc.o [1]
  .near_func.text  ro code  0x00b09c    0x24  stm8l15x_tim1.o [1]
  .near_func.text  ro code  0x00b0c0    0x24  stm8l15x_tim2.o [1]
  .near_func.text  ro code  0x00b0e4    0x24  timing_delay.o [1]
  .near_func.text  ro code  0x00b108    0x24  timing_delay.o [1]
  .near_func.text  ro code  0x00b12c    0x21  stm8l15x_exti.o [1]
  .near_func.text  ro code  0x00b14d    0x21  memchr.o [4]
  .iar.init_table  const    0x00b16e     0x8  - Linker created -
  .near_func.text  ro code  0x00b176    0x1f  memcpy.o [4]
  .near_func.text  ro code  0x00b195    0x1e  stm8l15x_it.o [1]
  .near_func.text  ro code  0x00b1b3    0x1e  init_small.o [4]
  .near_func.text  ro code  0x00b1d1    0x1c  stm8l15x_it.o [1]
  .near_func.text  ro code  0x00b1ed    0x1a  HD44780.o [1]
  .near_func.text  ro code  0x00b207    0x1a  stm8l15x_spi.o [1]
  .near_func.text  ro code  0x00b221    0x1a  stm8l15x_tim2.o [1]
  .near_func.text  ro code  0x00b23b    0x19  stm8l15x_adc.o [1]
  .near_func.text  ro code  0x00b254    0x19  stm8l15x_spi.o [1]
  .near_func.text  ro code  0x00b26d    0x15  strchr.o [4]
  .near_func.text  ro code  0x00b282    0x14  init.o [4]
  .near_func.text  ro code  0x00b296    0x14  xprintffull_nomb.o [4]
  .near_func.text  ro code  0x00b2aa    0x14  __dbg_xxexit.o [3]
  .near_func.text  ro code  0x00b2be    0x13  stm8l15x_clk.o [1]
  .near_func.text  ro code  0x00b2d1    0x13  cstartup.o [4]
  .near_func.text  ro code  0x00b2e4    0x12  stm8l15x_gpio.o [1]
  .near_func.text  ro code  0x00b2f6     0xf  eeprom.o [1]
  .near_func.text  ro code  0x00b305     0xf  timing_delay.o [1]
  .near.rodata     const    0x00b314     0xe  main.o [1]
  .near.rodata     const    0x00b322     0xe  main.o [1]
  .near.rodata     const    0x00b330     0xd  main.o [1]
  .near_func.text  ro code  0x00b33d     0xd  RFM22B.o [1]
  .near_func.text  ro code  0x00b34a     0xd  stm8l15x_adc.o [1]
  .near_func.text  ro code  0x00b357     0xd  stm8l15x_clk.o [1]
  .near_func.text  ro code  0x00b364     0xd  stm8l15x_tim1.o [1]
  .near_func.text  ro code  0x00b371     0xd  stm8l15x_tim1.o [1]
  .near_func.text  ro code  0x00b37e     0xd  stm8l15x_tim1.o [1]
  .near_func.text  ro code  0x00b38b     0xd  stm8l15x_tim1.o [1]
  .near_func.text  ro code  0x00b398     0xd  stm8l15x_tim2.o [1]
  .near_func.text  ro code  0x00b3a5     0xd  move.o [4]
  .near_func.text  ro code  0x00b3b2     0xd  strlen.o [4]
  .near_func.text  ro code  0x00b3bf     0xc  switch.o [4]
  .near_func.text  ro code  0x00b3cb     0xc  xprintffull_nomb.o [4]
  .near_func.text  ro code  0x00b3d7     0xb  stm8l15x_tim2.o [1]
  .near_func.text  ro code  0x00b3e2     0xb  char.o [4]
  .near_func.text  ro code  0x00b3ed     0xb  xprintffull_nomb.o [4]
  .near_func.text  ro code  0x00b3f8     0xb  xprintffull_nomb.o [4]
  .near_func.text  ro code  0x00b403     0xb  xprintffull_nomb.o [4]
  .near_func.text  ro code  0x00b40e     0xb  xsprout.o [4]
  .near_func.text  ro code  0x00b419     0xa  RFM22B.o [1]
  .near_func.text  ro code  0x00b423     0xa  xprintffull_nomb.o [4]
  .near_func.text  ro code  0x00b42d     0x9  xprintffull_nomb.o [4]
  .near_func.text  ro code  0x00b436     0x9  xprintffull_nomb.o [4]
  .near_func.text  ro code  0x00b43f     0x9  xprintffull_nomb.o [4]
  .near_func.text  ro code  0x00b448     0x8  RFM22B.o [1]
  .near_func.text  ro code  0x00b450     0x8  xprintffull_nomb.o [4]
  .near_func.text  ro code  0x00b458     0x8  xprintffull_nomb.o [4]
  .near_func.text  ro code  0x00b460     0x8  xprintffull_nomb.o [4]
  .near_func.text  ro code  0x00b468     0x8  xprintffull_nomb.o [4]
  .near.rodata     const    0x00b470     0x7  xprintffull_nomb.o [4]
  .near_func.text  ro code  0x00b477     0x7  stm8l15x_gpio.o [1]
  .near_func.text  ro code  0x00b47e     0x7  stm8l15x_gpio.o [1]
  .near_func.text  ro code  0x00b485     0x7  stm8l15x_gpio.o [1]
  .near_func.text  ro code  0x00b48c     0x7  xprintffull_nomb.o [4]
  .near_func.text  ro code  0x00b493     0x7  xprintffull_nomb.o [4]
  .near_func.text  ro code  0x00b49a     0x6  timing_delay.o [1]
  .near_func.text  ro code  0x00b4a0     0x6  xprintffull_nomb.o [4]
  .near_func.text  ro code  0x00b4a6     0x6  xprintffull_nomb.o [4]
  .near_func.text  ro code  0x00b4ac     0x6  xprintffull_nomb.o [4]
  .near_func.text  ro code  0x00b4b2     0x6  xprintffull_nomb.o [4]
  .near_func.text  ro code  0x00b4b8     0x6  xprintffull_nomb.o [4]
  .near_func.text  ro code  0x00b4be     0x5  stm8l15x_adc.o [1]
  .near_func.text  ro code  0x00b4c3     0x5  stm8l15x_tim2.o [1]
  .near_func.text  ro code  0x00b4c8     0x5  xprintffull_nomb.o [4]
  .near_func.text  ro code  0x00b4cd     0x5  cexit.o [4]
  .near.rodata     const    0x00b4d2     0x4  xprintffull_nomb.o [4]
  .near.rodata     const    0x00b4d6     0x4  xprintffull_nomb.o [4]
  .near.rodata     const    0x00b4da     0x4  xprintffull_nomb.o [4]
  .near.rodata     const    0x00b4de     0x4  xprintffull_nomb.o [4]
  .near_func.text  ro code  0x00b4e2     0x4  stm8l15x_clk.o [1]
  .near_func.text  ro code  0x00b4e6     0x4  stm8l15x_clk.o [1]
  .near_func.text  ro code  0x00b4ea     0x4  stm8l15x_clk.o [1]
  .near_func.text  ro code  0x00b4ee     0x4  stm8l15x_flash.o [1]
  .near_func.text  ro code  0x00b4f2     0x4  stm8l15x_gpio.o [1]
  .near_func.text  ro code  0x00b4f6     0x3  interrupt.o [4]
  .near_func.text  ro code  0x00b4f9     0x3  low_level_init.o [4]
  .near_func.text  ro code  0x00b4fc     0x3  exit.o [4]
  .near_func.text  ro code  0x00b4ff     0x3  unhandled_exception.o [4]
  .near.rodata     const    0x00b502     0x2  RFM22B.o [1]
  .near.rodata     const    0x00b504     0x2  xprintffull_nomb.o [4]
  .near_func.text  ro code  0x00b506     0x1  stm8l15x_it.o [1]
  .near_func.text  ro code  0x00b507     0x1  stm8l15x_it.o [1]
  .near_func.text  ro code  0x00b508     0x1  stm8l15x_it.o [1]
  .near_func.text  ro code  0x00b509     0x1  stm8l15x_it.o [1]
  .near_func.text  ro code  0x00b50a     0x1  stm8l15x_it.o [1]
  .near_func.text  ro code  0x00b50b     0x1  stm8l15x_it.o [1]
  .near_func.text  ro code  0x00b50c     0x1  stm8l15x_it.o [1]
  .near_func.text  ro code  0x00b50d     0x1  stm8l15x_it.o [1]
  .near_func.text  ro code  0x00b50e     0x1  stm8l15x_it.o [1]
  .near_func.text  ro code  0x00b50f     0x1  stm8l15x_it.o [1]
  .near_func.text  ro code  0x00b510     0x1  stm8l15x_it.o [1]
  .near_func.text  ro code  0x00b511     0x1  stm8l15x_it.o [1]
  .near_func.text  ro code  0x00b512     0x1  stm8l15x_it.o [1]
  .near_func.text  ro code  0x00b513     0x1  stm8l15x_it.o [1]
  .near_func.text  ro code  0x00b514     0x1  stm8l15x_it.o [1]
  .near_func.text  ro code  0x00b515     0x1  stm8l15x_it.o [1]
  .near_func.text  ro code  0x00b516     0x1  stm8l15x_it.o [1]
  .near_func.text  ro code  0x00b517     0x1  stm8l15x_it.o [1]
  .near_func.text  ro code  0x00b518     0x1  stm8l15x_it.o [1]
  .near_func.text  ro code  0x00b519     0x1  stm8l15x_it.o [1]
  .near_func.text  ro code  0x00b51a     0x1  stm8l15x_it.o [1]
  .near_func.text  ro code  0x00b51b     0x1  stm8l15x_it.o [1]
  .near_func.text  ro code  0x00b51c     0x1  stm8l15x_it.o [1]
  .near_func.text  ro code  0x00b51d     0x1  stm8l15x_it.o [1]
  .near_func.text  ro code  0x00b51e     0x1  stm8l15x_it.o [1]
  .near_func.text  ro code  0x00b51f     0x1  __dbg_break.o [3]
                          - 0x00b520  0x34a0


*******************************************************************************
*** INIT TABLE
***

          Address   Size
          -------   ----
Zero (__iar_zero_init2)
    1 destination range, total size 0x5e:
          0x000010  0x5e



*******************************************************************************
*** MODULE SUMMARY
***

    Module                 ro code  ro data  rw data
    ------                 -------  -------  -------
D:\STM8Workspace\FT-TRSY\FT_TRMT_FW\Debug\Obj: [1]
    HD44780.o                  533
    RFM22B.o                 1 911      452       66
    bsp.o                      776
    eeprom.o                    15
    main.o                     260       91       20
    stm8l15x_adc.o             256
    stm8l15x_clk.o             333
    stm8l15x_exti.o            302
    stm8l15x_flash.o             4
    stm8l15x_gpio.o            229
    stm8l15x_it.o              226
    stm8l15x_itc.o             275
    stm8l15x_spi.o             116
    stm8l15x_tim1.o            185
    stm8l15x_tim2.o             91
    timing_delay.o             130                 8
    ------------------------------------------------
    Total:                   5 642      543       94

command line: [2]
    ------------------------------------------------
    Total:

dbgstm8smd.a: [3]
    __dbg_break.o                1
    __dbg_xxexit.o              20
    ------------------------------------------------
    Total:                      21

dlstm8smn.a: [4]
    cexit.o                      5
    char.o                      11
    cstartup.o                  19
    dc_util.o                   44
    div.o                       48
    exit.o                       3
    float.o                  1 225
    float_libsup.o             353
    floor.o                     58
    init.o                      20
    init_small.o                30
    interrupt.o                  3      128
    long.o                     526
    long_util.o                114
    low_level_init.o             3
    memchr.o                    33
    memcpy.o                    31
    move.o                      13
    short.o                     71
    sprintf.o                   61
    strchr.o                    21
    strlen.o                    13
    switch.o                    12
    unhandled_exception.o        3
    vreg_util.o                339
    vregs.o                                       16
    xdint.o                    203
    xprintffull_nomb.o       3 900       85
    xsprout.o                   11
    ------------------------------------------------
    Total:                   7 173      213       16

    Linker created                        8      256
----------------------------------------------------
    Grand Total:            12 836      764      366


*******************************************************************************
*** ENTRY LIST
***

Entry                    Address   Size  Type      Object
-----                    -------   ----  ----      ------
.iar.init_table$$Base   0x00b16e          --   Gb  - Linker created -
.iar.init_table$$Limit  0x00b176          --   Gb  - Linker created -
?add32_l0_l0_0x         0x0098d7         Code  Gb  long.o [4]
?add32_l0_l0_dl         0x0098cf         Code  Gb  long.o [4]
?add32_l0_l0_l1         0x0098d4         Code  Gb  long.o [4]
?and32_l0_l0_0x         0x009a5c         Code  Gb  long.o [4]
?and32_l0_l0_l1         0x009a59         Code  Gb  long.o [4]
?b0                     0x000000         Data  Gb  vregs.o [4]
?b1                     0x000001         Data  Gb  vregs.o [4]
?b10                    0x00000a         Data  Gb  vregs.o [4]
?b11                    0x00000b         Data  Gb  vregs.o [4]
?b12                    0x00000c         Data  Gb  vregs.o [4]
?b13                    0x00000d         Data  Gb  vregs.o [4]
?b14                    0x00000e         Data  Gb  vregs.o [4]
?b15                    0x00000f         Data  Gb  vregs.o [4]
?b2                     0x000002         Data  Gb  vregs.o [4]
?b3                     0x000003         Data  Gb  vregs.o [4]
?b4                     0x000004         Data  Gb  vregs.o [4]
?b5                     0x000005         Data  Gb  vregs.o [4]
?b6                     0x000006         Data  Gb  vregs.o [4]
?b7                     0x000007         Data  Gb  vregs.o [4]
?b8                     0x000008         Data  Gb  vregs.o [4]
?b9                     0x000009         Data  Gb  vregs.o [4]
?dc32_l0                0x00afb6         Code  Gb  dc_util.o [4]
?dc32_l1                0x00afc3         Code  Gb  dc_util.o [4]
?dc32_px                0x00afd0         Code  Gb  dc_util.o [4]
?dc8_px                 0x00afaf         Code  Gb  dc_util.o [4]
?dec32_0x_0x            0x0098bb         Code  Gb  long.o [4]
?dec32_l0_l0            0x0098b6         Code  Gb  long.o [4]
?e0                     0x000001         Data  Gb  vregs.o [4]
?e1                     0x000005         Data  Gb  vregs.o [4]
?e2                     0x000009         Data  Gb  vregs.o [4]
?e3                     0x00000d         Data  Gb  vregs.o [4]
?epilogue_l2            0x00a1d3         Code  Gb  vreg_util.o [4]
?epilogue_l2_l3         0x00a1d0         Code  Gb  vreg_util.o [4]
?epilogue_w4            0x00a1d7         Code  Gb  vreg_util.o [4]
?fadd32_l0_l0_dc32      0x0087fb         Code  Gb  float.o [4]
?fadd32_l0_l0_l1        0x008800         Code  Gb  float.o [4]
?fcastf32s16_l0_x       0x008a8a         Code  Gb  float.o [4]
?fcastf32s32_l0_l0      0x008b5c         Code  Gb  float.o [4]
?fcastf32u16_l0_x       0x008a91         Code  Gb  float.o [4]
?fcastf32u32_l0_l0      0x008b67         Code  Gb  float.o [4]
?fcasts16f32_x_l0       0x008aaf         Code  Gb  float.o [4]
?fcasts32f32_l0_l0      0x008afb         Code  Gb  float.o [4]
?fcastu32f32_l0_l0      0x008ae4         Code  Gb  float.o [4]
?fcmpge32_c_l0_0x       0x008a2b         Code  Gb  float.o [4]
?fcmpge32_c_l0_dc32     0x008a26         Code  Gb  float.o [4]
?fcmplt32_c_l0_0x       0x008a34         Code  Gb  float.o [4]
?fcmplt32_c_l0_dc32     0x008a2f         Code  Gb  float.o [4]
?fdiv32_l0_dc32_l1      0x00896e         Code  Gb  float.o [4]
?fdiv32_l0_l0_dc32      0x008973         Code  Gb  float.o [4]
?fdiv32_l0_l0_l1        0x008978         Code  Gb  float.o [4]
?fmul32_l0_l0_dc32      0x0088ce         Code  Gb  float.o [4]
?fmul32_l0_l0_l1        0x0088d3         Code  Gb  float.o [4]
?fsub32_l0_l0_l1        0x0087f5         Code  Gb  float.o [4]
?inc32_0x_0x            0x0098a8         Code  Gb  long.o [4]
?inc32_l0_l0            0x0098a3         Code  Gb  long.o [4]
?l0                     0x000000         Data  Gb  vregs.o [4]
?l1                     0x000004         Data  Gb  vregs.o [4]
?l2                     0x000008         Data  Gb  vregs.o [4]
?l3                     0x00000c         Data  Gb  vregs.o [4]
?load32_0x_l0           0x00aa09         Code  Gb  long_util.o [4]
?load32_0x_l2           0x00aa28         Code  Gb  long_util.o [4]
?load32_asp_l0          0x00a9fd         Code  Gb  long_util.o [4]
?load32_asp_l2          0x00aa1c         Code  Gb  long_util.o [4]
?load32_dbsp_l0         0x00a9f8         Code  Gb  long_util.o [4]
?load32_dbsp_l2         0x00aa17         Code  Gb  long_util.o [4]
?load32_l0_0x           0x00a9d4         Code  Gb  long_util.o [4]
?load32_l0_asp          0x00a9c9         Code  Gb  long_util.o [4]
?load32_l0_dbsp         0x00a9c4         Code  Gb  long_util.o [4]
?load32_l0_xsp          0x00a9cb         Code  Gb  long_util.o [4]
?load32_l1_0x           0x00a9e0         Code  Gb  long_util.o [4]
?load32_l2_0x           0x00a9ec         Code  Gb  long_util.o [4]
?load32_xsp_l0          0x00a9ff         Code  Gb  long_util.o [4]
?load32_xsp_l2          0x00aa1e         Code  Gb  long_util.o [4]
?mov_e0_e1              0x00a216         Code  Gb  vreg_util.o [4]
?mov_e0_e2              0x00a223         Code  Gb  vreg_util.o [4]
?mov_e0_e3              0x00a230         Code  Gb  vreg_util.o [4]
?mov_e1_e0              0x00a23d         Code  Gb  vreg_util.o [4]
?mov_e1_e2              0x00a24a         Code  Gb  vreg_util.o [4]
?mov_e1_e3              0x00a257         Code  Gb  vreg_util.o [4]
?mov_e2_e0              0x00a264         Code  Gb  vreg_util.o [4]
?mov_e3_e0              0x00a271         Code  Gb  vreg_util.o [4]
?mov_e3_e1              0x00a27e         Code  Gb  vreg_util.o [4]
?mov_l0_l1              0x00a213         Code  Gb  vreg_util.o [4]
?mov_l0_l2              0x00a220         Code  Gb  vreg_util.o [4]
?mov_l0_l3              0x00a22d         Code  Gb  vreg_util.o [4]
?mov_l1_l0              0x00a23a         Code  Gb  vreg_util.o [4]
?mov_l1_l2              0x00a247         Code  Gb  vreg_util.o [4]
?mov_l1_l3              0x00a254         Code  Gb  vreg_util.o [4]
?mov_l2_l0              0x00a261         Code  Gb  vreg_util.o [4]
?mov_l3_l0              0x00a26e         Code  Gb  vreg_util.o [4]
?mov_l3_l1              0x00a27b         Code  Gb  vreg_util.o [4]
?mov_w0_w1              0x00a1db         Code  Gb  vreg_util.o [4]
?mov_w0_w5              0x00a1e2         Code  Gb  vreg_util.o [4]
?mov_w1_w0              0x00a1e9         Code  Gb  vreg_util.o [4]
?mov_w1_w3              0x00a219         Code  Gb  vreg_util.o [4]
?mov_w1_w5              0x00a226         Code  Gb  vreg_util.o [4]
?mov_w1_w7              0x00a233         Code  Gb  vreg_util.o [4]
?mov_w2_w0              0x00a1f0         Code  Gb  vreg_util.o [4]
?mov_w2_w1              0x00a1f7         Code  Gb  vreg_util.o [4]
?mov_w3_w1              0x00a240         Code  Gb  vreg_util.o [4]
?mov_w3_w5              0x00a24d         Code  Gb  vreg_util.o [4]
?mov_w3_w7              0x00a25a         Code  Gb  vreg_util.o [4]
?mov_w4_w0              0x00a1fe         Code  Gb  vreg_util.o [4]
?mov_w4_w1              0x00a205         Code  Gb  vreg_util.o [4]
?mov_w5_w0              0x00a20c         Code  Gb  vreg_util.o [4]
?mov_w5_w1              0x00a267         Code  Gb  vreg_util.o [4]
?mov_w7_w1              0x00a274         Code  Gb  vreg_util.o [4]
?mov_w7_w3              0x00a281         Code  Gb  vreg_util.o [4]
?move1616_v_x_y_a       0x00b3a5         Code  Gb  move.o [4]
?mul16_x_x_w0           0x00ab4b         Code  Gb  short.o [4]
?mul32_l0_l0_0x         0x0098f2         Code  Gb  long.o [4]
?mul32_l0_l0_dl         0x0098ef         Code  Gb  long.o [4]
?mul32_l0_l0_l1         0x0098fb         Code  Gb  long.o [4]
?neg32_l0_l0            0x009893         Code  Gb  long.o [4]
?pop_l0                 0x00a19c         Code  Gb  vreg_util.o [4]
?pop_l1                 0x00a1a7         Code  Gb  vreg_util.o [4]
?pop_l2                 0x00a1b2         Code  Gb  vreg_util.o [4]
?pop_l3                 0x00a1bd         Code  Gb  vreg_util.o [4]
?pop_w4                 0x00a15c         Code  Gb  vreg_util.o [4]
?push_l0                0x00a16b         Code  Gb  vreg_util.o [4]
?push_l1                0x00a170         Code  Gb  vreg_util.o [4]
?push_l2                0x00a175         Code  Gb  vreg_util.o [4]
?push_l3                0x00a17a         Code  Gb  vreg_util.o [4]
?push_w0                0x00a135         Code  Gb  vreg_util.o [4]
?push_w1                0x00a13a         Code  Gb  vreg_util.o [4]
?push_w4                0x00a13f         Code  Gb  vreg_util.o [4]
?push_w6                0x00a144         Code  Gb  vreg_util.o [4]
?scmp32_c_l0_l1         0x009a42         Code  Gb  long.o [4]
?sdiv16_x_x_y           0x00ab69         Code  Gb  short.o [4]
?sdiv32_l0_l0_dl        0x0099ee         Code  Gb  long.o [4]
?sdiv32_l0_l0_l1        0x0099f1         Code  Gb  long.o [4]
?sext32_l0_a            0x009a94         Code  Gb  long.o [4]
?sext32_l0_x            0x009a89         Code  Gb  long.o [4]
?sll16_x_x_a            0x00ab82         Code  Gb  short.o [4]
?sll8_a_a_5             0x00b3e2         Code  Gb  char.o [4]
?smod32_l1_l0_l1        0x0099f1         Code  Gb  long.o [4]
?sra32_0x_0x_a          0x009a7b         Code  Gb  long.o [4]
?sra32_l0_l0_a          0x009a78         Code  Gb  long.o [4]
?sra32_l0_l0_db         0x009a74         Code  Gb  long.o [4]
?srl16_x_x_4            0x00ab8d         Code  Gb  short.o [4]
?srl16_x_x_5            0x00ab8c         Code  Gb  short.o [4]
?srl16_x_x_6            0x00ab8b         Code  Gb  short.o [4]
?srl16_x_x_7            0x00ab8a         Code  Gb  short.o [4]
?srl8_a_a_5             0x00b3e8         Code  Gb  char.o [4]
?srl8_a_a_6             0x00b3e7         Code  Gb  char.o [4]
?switch8vlt_0x_a_0x     0x00b3bf         Code  Gb  switch.o [4]
?ucmp32_c_l0_l1         0x009a37         Code  Gb  long.o [4]
?udiv32_l0_l0_dl        0x00997e         Code  Gb  long.o [4]
?udiv32_l0_l0_l1        0x009981         Code  Gb  long.o [4]
?umod32_l1_l0_dl        0x009979         Code  Gb  long.o [4]
?umod32_l1_l0_l1        0x009981         Code  Gb  long.o [4]
?w0                     0x000000         Data  Gb  vregs.o [4]
?w1                     0x000002         Data  Gb  vregs.o [4]
?w2                     0x000004         Data  Gb  vregs.o [4]
?w3                     0x000006         Data  Gb  vregs.o [4]
?w4                     0x000008         Data  Gb  vregs.o [4]
?w5                     0x00000a         Data  Gb  vregs.o [4]
?w6                     0x00000c         Data  Gb  vregs.o [4]
?w7                     0x00000e         Data  Gb  vregs.o [4]
ADC1_COMP_IRQHandler    0x00b514    0x1  Code  Gb  stm8l15x_it.o [1]
ADC_ChannelCmd          0x00aaf6   0x55  Code  Gb  stm8l15x_adc.o [1]
ADC_Cmd                 0x00b34a    0xd  Code  Gb  stm8l15x_adc.o [1]
ADC_Config              0x00acda   0x3c  Code  Gb  bsp.o [1]
ADC_GetConversionValue  0x00afdb   0x2b  Code  Gb  stm8l15x_adc.o [1]
ADC_GetFlagStatus       0x00b23b   0x19  Code  Gb  stm8l15x_adc.o [1]
ADC_Init                0x00b078   0x24  Code  Gb  stm8l15x_adc.o [1]
ADC_SamplingTimeConfig  0x00aec6   0x31  Code  Gb  stm8l15x_adc.o [1]
ADC_SoftwareStartConv   0x00b4be    0x5  Code  Gb  stm8l15x_adc.o [1]
CLK_Config              0x00b054   0x24  Code  Gb  bsp.o [1]
CLK_GetFlagStatus       0x00a677   0x98  Code  Gb  stm8l15x_clk.o [1]
CLK_GetSYSCLKSource     0x00b4e6    0x4  Code  Gb  stm8l15x_clk.o [1]
CLK_HSEConfig           0x00b2be   0x13  Code  Gb  stm8l15x_clk.o [1]
CLK_PeripheralClockConfig
                        0x00a82d   0x89  Code  Gb  stm8l15x_clk.o [1]
CLK_SYSCLKDivConfig     0x00b4ea    0x4  Code  Gb  stm8l15x_clk.o [1]
CLK_SYSCLKSourceConfig  0x00b4e2    0x4  Code  Gb  stm8l15x_clk.o [1]
CLK_SYSCLKSourceSwitchCmd
                        0x00b357    0xd  Code  Gb  stm8l15x_clk.o [1]
CSTACK$$Base            0x000700          --   Gb  - Linker created -
CSTACK$$Limit           0x000800          --   Gb  - Linker created -
DMA1_CHANNEL0_1_IRQHandler
                        0x00b508    0x1  Code  Gb  stm8l15x_it.o [1]
DMA1_CHANNEL2_3_IRQHandler
                        0x00b509    0x1  Code  Gb  stm8l15x_it.o [1]
Delay                   0x00b0e4   0x24  Code  Gb  timing_delay.o [1]
EXTI0_IRQHandler        0x00b50e    0x1  Code  Gb  stm8l15x_it.o [1]
EXTI1_IRQHandler        0x00b50f    0x1  Code  Gb  stm8l15x_it.o [1]
EXTI2_IRQHandler        0x00b510    0x1  Code  Gb  stm8l15x_it.o [1]
EXTI3_IRQHandler        0x00b1d1   0x1c  Code  Gb  stm8l15x_it.o [1]
EXTI4_IRQHandler        0x00b006   0x29  Code  Gb  stm8l15x_it.o [1]
EXTI5_IRQHandler        0x00adfb   0x33  Code  Gb  stm8l15x_it.o [1]
EXTI6_IRQHandler        0x00ae2e   0x33  Code  Gb  stm8l15x_it.o [1]
EXTI7_IRQHandler        0x00b511    0x1  Code  Gb  stm8l15x_it.o [1]
EXTIB_G_IRQHandler      0x00b50c    0x1  Code  Gb  stm8l15x_it.o [1]
EXTID_H_IRQHandler      0x00b50d    0x1  Code  Gb  stm8l15x_it.o [1]
EXTIE_F_PVD_IRQHandler  0x00b50b    0x1  Code  Gb  stm8l15x_it.o [1]
EXTI_ClearITPendingBit  0x00b12c   0x21  Code  Gb  stm8l15x_exti.o [1]
EXTI_SetPinSensitivity  0x00a39b  0x10d  Code  Gb  stm8l15x_exti.o [1]
EnableRFM22B            0x00b33d    0xd  Code  Gb  RFM22B.o [1]
FLASH_IRQHandler        0x00b507    0x1  Code  Gb  stm8l15x_it.o [1]
FLASH_ReadByte          0x00b4ee    0x4  Code  Gb  stm8l15x_flash.o [1]
GPIO_Config             0x00a70f   0x90  Code  Gb  bsp.o [1]
GPIO_ExternalPullUpConfig
                        0x00af83   0x2c  Code  Gb  stm8l15x_gpio.o [1]
GPIO_Init               0x00a79f   0x8e  Code  Gb  stm8l15x_gpio.o [1]
GPIO_ReadInputDataBit   0x00b485    0x7  Code  Gb  stm8l15x_gpio.o [1]
GPIO_ResetBits          0x00b4f2    0x4  Code  Gb  stm8l15x_gpio.o [1]
GPIO_SetBits            0x00b477    0x7  Code  Gb  stm8l15x_gpio.o [1]
GPIO_ToggleBits         0x00b47e    0x7  Code  Gb  stm8l15x_gpio.o [1]
GPIO_WriteBit           0x00b2e4   0x12  Code  Gb  stm8l15x_gpio.o [1]
I2C1_SPI2_IRQHandler    0x00b51e    0x1  Code  Gb  stm8l15x_it.o [1]
INTVEC$$Base            0x008000          --   Gb  - Linker created -
INTVEC$$Limit           0x008080          --   Gb  - Linker created -
ITC_Config              0x00af56   0x2d  Code  Gb  bsp.o [1]
ITC_SetSoftwarePriority
                        0x00a288  0x113  Code  Gb  stm8l15x_itc.o [1]
InitHardware            0x00aa97   0x5f  Code  Gb  bsp.o [1]
LCD_AES_IRQHandler      0x00b512    0x1  Code  Gb  stm8l15x_it.o [1]
LCD_CLEAR_DISPLAY       0x009b42    0xf  Code  Gb  HD44780.o [1]
LCD_CMD                 0x009aa1   0xa1  Code  Gb  HD44780.o [1]
LCD_ENABLE              0x00b1ed   0x1a  Code  Gb  HD44780.o [1]
LCD_INIT                0x009b51   0x55  Code  Gb  HD44780.o [1]
LCD_LOCATE              0x009c61   0x3b  Code  Gb  HD44780.o [1]
LCD_printchar           0x009ba6   0xa1  Code  Gb  HD44780.o [1]
LCD_printstring         0x009c47   0x1a  Code  Gb  HD44780.o [1]
LoadInt                 0x00ac5c   0x41  Code  Lc  xprintffull_nomb.o [4]
MODEM_CONFIG_TABLE      0x009c9c  0x1c2  Data  Lc  RFM22B.o [1]
NselRFM22B              0x00b419    0xa  Code  Gb  RFM22B.o [1]
RF22init                0x008469  0x101  Code  Gb  RFM22B.o [1]
RTC_CSSLSE_IRQHandler   0x00b50a    0x1  Code  Gb  stm8l15x_it.o [1]
ReadBurstRFM22B         0x008157   0x86  Code  Gb  RFM22B.o [1]
ReadEepromByte          0x00b2f6    0xf  Code  Gb  eeprom.o [1]
ReadSingleRFM22B        0x008080   0x6d  Code  Gb  RFM22B.o [1]
Region$$Table$$Base     0x00b16e          --   Gb  - Linker created -
Region$$Table$$Limit    0x00b176          --   Gb  - Linker created -
SPI1_IRQHandler         0x00b51b    0x1  Code  Gb  stm8l15x_it.o [1]
SPI_Cmd                 0x00b207    0xd  Code  Gb  stm8l15x_spi.o [1]
SPI_Config              0x00ad8c   0x38  Code  Gb  bsp.o [1]
SPI_GetFlagStatus       0x00b254   0x19  Code  Gb  stm8l15x_spi.o [1]
SPI_Init                0x00ac1b   0x41  Code  Gb  stm8l15x_spi.o [1]
SPI_ReceiveData         0x00b21c    0x5  Code  Gb  stm8l15x_spi.o [1]
SPI_SendData            0x00b214    0x8  Code  Gb  stm8l15x_spi.o [1]
SWITCH_CSS_BREAK_DAC_IRQHandler
                        0x00b513    0x1  Code  Gb  stm8l15x_it.o [1]
ShutdownRFM22B          0x00b448    0x8  Code  Gb  RFM22B.o [1]
SysTick                 0x00005a    0x4  Data  Lc  timing_delay.o [1]
SystickHandler          0x00b305    0xf  Code  Gb  timing_delay.o [1]
TIM1_ARRPreloadConfig   0x00b364    0xd  Code  Gb  stm8l15x_tim1.o [1]
TIM1_CC_IRQHandler      0x00b519    0x1  Code  Gb  stm8l15x_it.o [1]
TIM1_Cmd                0x00b371    0xd  Code  Gb  stm8l15x_tim1.o [1]
TIM1_Config             0x00ab92   0x46  Code  Gb  bsp.o [1]
TIM1_CtrlPWMOutputs     0x00b37e    0xd  Code  Gb  stm8l15x_tim1.o [1]
TIM1_OC3Init            0x00aa36   0x61  Code  Gb  stm8l15x_tim1.o [1]
TIM1_OC3PreloadConfig   0x00b38b    0xd  Code  Gb  stm8l15x_tim1.o [1]
TIM1_TimeBaseInit       0x00b09c   0x24  Code  Gb  stm8l15x_tim1.o [1]
TIM1_UPD_OVF_TRG_COM_IRQHandler
                        0x00b518    0x1  Code  Gb  stm8l15x_it.o [1]
TIM2_CC_USART2_RX_IRQHandler
                        0x00b515    0x1  Code  Gb  stm8l15x_it.o [1]
TIM2_ClearFlag          0x00b3d7    0xb  Code  Gb  stm8l15x_tim2.o [1]
TIM2_ClearITPendingBit  0x00b4c3    0x5  Code  Gb  stm8l15x_tim2.o [1]
TIM2_Cmd                0x00b398    0xd  Code  Gb  stm8l15x_tim2.o [1]
TIM2_ITConfig           0x00b221   0x1a  Code  Gb  stm8l15x_tim2.o [1]
TIM2_TimeBaseInit       0x00b0c0   0x24  Code  Gb  stm8l15x_tim2.o [1]
TIM2_UPD_OVF_TRG_BRK_USART2_TX_IRQHandler
                        0x00b195   0x1e  Code  Gb  stm8l15x_it.o [1]
TIM3_CC_USART3_RX_IRQHandler
                        0x00b517    0x1  Code  Gb  stm8l15x_it.o [1]
TIM3_UPD_OVF_TRG_BRK_USART3_TX_IRQHandler
                        0x00b516    0x1  Code  Gb  stm8l15x_it.o [1]
TIM4_UPD_OVF_TRG_IRQHandler
                        0x00b51a    0x1  Code  Gb  stm8l15x_it.o [1]
TRAP_IRQHandler         0x00b506    0x1  Code  Gb  stm8l15x_it.o [1]
TimingDelay             0x000056    0x4  Data  Lc  timing_delay.o [1]
TimingDelay_Decrement   0x00b108   0x24  Code  Gb  timing_delay.o [1]
TimingDelay_Init        0x00b02f   0x25  Code  Gb  timing_delay.o [1]
USART1_RX_TIM5_CC_IRQHandler
                        0x00b51d    0x1  Code  Gb  stm8l15x_it.o [1]
USART1_TX_TIM5_UPD_OVF_TRG_BRK_IRQHandler
                        0x00b51c    0x1  Code  Gb  stm8l15x_it.o [1]
WriteBurstRFM22B        0x0081dd   0x5f  Code  Gb  RFM22B.o [1]
WriteSingleRFM22B       0x0080ed   0x6a  Code  Gb  RFM22B.o [1]
_GenldFullNoMb          0x009510  0x383  Code  Lc  xprintffull_nomb.o [4]
_LdtobFullNoMb          0x0090fe  0x412  Code  Lc  xprintffull_nomb.o [4]
_LitobFullNoMb          0x009e5e  0x176  Code  Lc  xprintffull_nomb.o [4]
_PrintfFullNoMb         0x008ca1  0x45d  Code  Gb  xprintffull_nomb.o [4]
_PutcharFullNoMb        0x00af27   0x2f  Code  Lc  xprintffull_nomb.o [4]
_PutcharsFullNoMb       0x00ae61   0x33  Code  Lc  xprintffull_nomb.o [4]
_SProut                 0x00b40e    0xb  Code  Gb  xsprout.o [4]
__DebugBreak            0x00b51f    0x1  Code  Gb  __dbg_break.o [3]
__exit                  0x00b2aa   0x14  Code  Gb  __dbg_xxexit.o [3]
__iar_Dint              0x00a5ac   0xcb  Code  Gb  xdint.o [4]
__iar_Dnorm             0x009fd4         Code  Gb  float_libsup.o [4]
__iar_Dscale            0x00a062         Code  Gb  float_libsup.o [4]
__iar_Dunscale          0x00a010         Code  Gb  float_libsup.o [4]
__iar_Memchr            0x00b14d   0x21  Code  Gb  memchr.o [4]
__iar_Strchr            0x00b26d   0x15  Code  Gb  strchr.o [4]
__iar_data_init2        0x00b282   0x14  Code  Gb  init.o [4]
__iar_program_start     0x00b2d1         Code  Gb  cstartup.o [4]
__iar_unhandled_exception
                        0x00b4ff         Code  Gb  unhandled_exception.o [4]
__iar_zero_init2        0x00b1b3         Code  Gb  init_small.o [4]
__intvec                0x008000         Data  Gb  interrupt.o [4]
__low_level_init        0x00b4f9    0x3  Code  Gb  low_level_init.o [4]
_buf                    0x000010   0x32  Data  Lc  RFM22B.o [1]
_bufLen                 0x000069    0x1  Data  Gb  RFM22B.o [1]
_deviceType             0x000068    0x1  Data  Lc  RFM22B.o [1]
_exit                   0x00b4cd         Code  Gb  cexit.o [4]
_idleMode               0x000067    0x1  Data  Lc  RFM22B.o [1]
_interrupt_1            0x00b506         Code  Gb  stm8l15x_it.o [1]
_interrupt_10           0x00b50e         Code  Gb  stm8l15x_it.o [1]
_interrupt_11           0x00b50f         Code  Gb  stm8l15x_it.o [1]
_interrupt_12           0x00b510         Code  Gb  stm8l15x_it.o [1]
_interrupt_13           0x00b1d1         Code  Gb  stm8l15x_it.o [1]
_interrupt_14           0x00b006         Code  Gb  stm8l15x_it.o [1]
_interrupt_15           0x00adfb         Code  Gb  stm8l15x_it.o [1]
_interrupt_16           0x00ae2e         Code  Gb  stm8l15x_it.o [1]
_interrupt_17           0x00b511         Code  Gb  stm8l15x_it.o [1]
_interrupt_18           0x00b512         Code  Gb  stm8l15x_it.o [1]
_interrupt_19           0x00b513         Code  Gb  stm8l15x_it.o [1]
_interrupt_20           0x00b514         Code  Gb  stm8l15x_it.o [1]
_interrupt_21           0x00b195         Code  Gb  stm8l15x_it.o [1]
_interrupt_22           0x00b515         Code  Gb  stm8l15x_it.o [1]
_interrupt_23           0x00b516         Code  Gb  stm8l15x_it.o [1]
_interrupt_24           0x00b517         Code  Gb  stm8l15x_it.o [1]
_interrupt_25           0x00b518         Code  Gb  stm8l15x_it.o [1]
_interrupt_26           0x00b519         Code  Gb  stm8l15x_it.o [1]
_interrupt_27           0x00b51a         Code  Gb  stm8l15x_it.o [1]
_interrupt_28           0x00b51b         Code  Gb  stm8l15x_it.o [1]
_interrupt_29           0x00b51c         Code  Gb  stm8l15x_it.o [1]
_interrupt_3            0x00b507         Code  Gb  stm8l15x_it.o [1]
_interrupt_30           0x00b51d         Code  Gb  stm8l15x_it.o [1]
_interrupt_31           0x00b51e         Code  Gb  stm8l15x_it.o [1]
_interrupt_4            0x00b508         Code  Gb  stm8l15x_it.o [1]
_interrupt_5            0x00b509         Code  Gb  stm8l15x_it.o [1]
_interrupt_6            0x00b50a         Code  Gb  stm8l15x_it.o [1]
_interrupt_7            0x00b50b         Code  Gb  stm8l15x_it.o [1]
_interrupt_8            0x00b50c         Code  Gb  stm8l15x_it.o [1]
_interrupt_9            0x00b50d         Code  Gb  stm8l15x_it.o [1]
_lastRssi               0x00006d    0x1  Data  Gb  RFM22B.o [1]
_mode                   0x000066    0x1  Data  Lc  RFM22B.o [1]
_rxBad                  0x00005e    0x2  Data  Gb  RFM22B.o [1]
_rxBufValid             0x00006a    0x1  Data  Gb  RFM22B.o [1]
_rxGood                 0x000060    0x2  Data  Gb  RFM22B.o [1]
_txBufSentIndex         0x00006c    0x1  Data  Gb  RFM22B.o [1]
_txGood                 0x000062    0x2  Data  Gb  RFM22B.o [1]
_txPacketSent           0x00006b    0x1  Data  Gb  RFM22B.o [1]
appendTxBuf             0x008775   0x3e  Code  Gb  RFM22B.o [1]
available               0x008738    0x7  Code  Gb  RFM22B.o [1]
clearRxBuf              0x008441    0x9  Code  Gb  RFM22B.o [1]
clearTxBuf              0x00844a    0xd  Code  Gb  RFM22B.o [1]
div                     0x00aef7   0x30  Code  Gb  div.o [4]
exit                    0x00b4fc    0x3  Code  Gb  exit.o [4]
fillTxBuf               0x0087b3    0x6  Code  Gb  RFM22B.o [1]
floor                   0x00ad52   0x3a  Code  Gb  floor.o [4]
handleExternalInterrupt
                        0x008596    0x1  Code  Gb  RFM22B.o [1]
handleInterrupt         0x00863a   0xe8  Code  Gb  RFM22B.o [1]
handleWakeupTimerInterrupt
                        0x008595    0x1  Code  Gb  RFM22B.o [1]
interruptCb             0x000064    0x2  Data  Lc  RFM22B.o [1]
kuki                    0x000042   0x14  Data  Gb  main.o [1]
main                    0x00a4a8  0x104  Code  Gb  main.o [1]
memcpy                  0x00b176   0x1f  Code  Gb  memcpy.o [4]
millis                  0x00b49a    0x6  Code  Gb  timing_delay.o [1]
pad                     0x00adc4   0x37  Code  Lc  xprintffull_nomb.o [4]
readADC_VBAT            0x00a8b6   0x87  Code  Gb  bsp.o [1]
readADC_VREF            0x00a93d   0x87  Code  Gb  bsp.o [1]
readNextFragment        0x008597   0x27  Code  Gb  RFM22B.o [1]
reset                   0x008457   0x12  Code  Gb  RFM22B.o [1]
resetFifos              0x00862a   0x10  Code  Gb  RFM22B.o [1]
resetRxFifo             0x008585   0x10  Code  Gb  RFM22B.o [1]
restartTransmit         0x00861b    0xf  Code  Gb  RFM22B.o [1]
rfIsr                   0x008240    0xb  Code  Gb  RFM22B.o [1]
rfSetInterruptCallback  0x00823c    0x4  Code  Gb  RFM22B.o [1]
scale                   0x00abd8   0x43  Code  Lc  xprintffull_nomb.o [4]
send                    0x0087b9   0x1f  Code  Gb  RFM22B.o [1]
sendNextFragment        0x0085be   0x39  Code  Gb  RFM22B.o [1]
setFrequency            0x0082ea  0x11d  Code  Gb  RFM22B.o [1]
setHeaderFlags          0x008407    0x7  Code  Gb  RFM22B.o [1]
setHeaderFrom           0x008415    0x7  Code  Gb  RFM22B.o [1]
setHeaderId             0x00840e    0x7  Code  Gb  RFM22B.o [1]
setHeaderTo             0x00841c    0x7  Code  Gb  RFM22B.o [1]
setMode                 0x00856a    0x7  Code  Gb  RFM22B.o [1]
setModeIdle             0x008727   0x11  Code  Gb  RFM22B.o [1]
setModeRx               0x008571   0x14  Code  Gb  RFM22B.o [1]
setModeTx               0x0085f7   0x14  Code  Gb  RFM22B.o [1]
setModemConfig          0x0082b2   0x38  Code  Gb  RFM22B.o [1]
setModemRegisters       0x008252   0x60  Code  Gb  RFM22B.o [1]
setPreambleLength       0x00843a    0x7  Code  Gb  RFM22B.o [1]
setPromiscuous          0x008423   0x10  Code  Gb  RFM22B.o [1]
setSyncWords            0x008433    0x7  Code  Gb  RFM22B.o [1]
setTxPower              0x00824b    0x7  Code  Gb  RFM22B.o [1]
sprintf                 0x00ac9d   0x3d  Code  Gb  sprintf.o [4]
startTransmit           0x00860b   0x10  Code  Gb  RFM22B.o [1]
statusRead              0x008722    0x5  Code  Gb  RFM22B.o [1]
strlen                  0x00b3b2    0xd  Code  Gb  strlen.o [4]
waitAvailableTimeout    0x00873f   0x2f  Code  Gb  RFM22B.o [1]
waitPacketSent          0x00876e    0x7  Code  Gb  RFM22B.o [1]


[1] = D:\STM8Workspace\FT-TRSY\FT_TRMT_FW\Debug\Obj
[2] = command line
[3] = dbgstm8smd.a
[4] = dlstm8smn.a

  12 836 bytes of readonly  code memory
     764 bytes of readonly  data memory
     366 bytes of readwrite data memory

Errors: none
Warnings: none
